target datalayout = "e-m:e-p270:32:32-p271:32:32-p272:64:64-i64:64-i128:128-f80:128-n8:16:32:64-S128"
target triple = "x86_64-pc-linux-gnu"

@offset_base = internal global i32 16, align 4
@.str.26 = private unnamed_addr constant [25 x i8] c"FATAL ERROR: str is NULL\00", align 1
@.str.29 = private unnamed_addr constant [36 x i8] c"Unable to convert %s to base %u: %s\00", align 1
@.str.30 = private unnamed_addr constant [32 x i8] c"Unable to convert %s to base %u\00", align 1
@.str.31 = private unnamed_addr constant [13 x i8] c"%s too large\00", align 1

; Function Attrs: null_pointer_is_valid sspstrong uwtable
define internal i32 @parse_num(ptr noundef %0, i32 noundef %1, ptr noundef %2) #0 {
  %4 = alloca i32, align 4
  %5 = alloca ptr, align 8
  %6 = alloca i32, align 4
  %7 = alloca ptr, align 8
  %8 = alloca ptr, align 8
  %9 = alloca i32, align 4
  %10 = alloca i64, align 8
  store ptr %0, ptr %5, align 8
  store i32 %1, ptr %6, align 4
  store ptr %2, ptr %7, align 8
  call void @llvm.lifetime.start.p0(i64 8, ptr %8) #15
  %11 = load ptr, ptr %5, align 8
  %12 = icmp eq ptr %11, null
  br i1 %12, label %13, label %14

13:                                               ; preds = %3
  call void (ptr, ...) @report_failure(ptr noundef @.str.26)
  store i32 1, ptr %4, align 4
  store i32 1, ptr %9, align 4
  br label %63

14:                                               ; preds = %3
  %15 = call ptr @__errno_location() #18
  store i32 0, ptr %15, align 4
  call void @llvm.lifetime.start.p0(i64 8, ptr %10) #15
  %16 = load ptr, ptr %5, align 8
  %17 = load i32, ptr %6, align 4
  %18 = icmp ne i32 %17, 0
  br i1 %18, label %19, label %21

19:                                               ; preds = %14
  %20 = load i32, ptr @offset_base, align 4
  br label %22

21:                                               ; preds = %14
  br label %22

22:                                               ; preds = %21, %19
  %23 = phi i32 [ %20, %19 ], [ 16, %21 ]
  %24 = call i64 @strtoul(ptr noundef %16, ptr noundef %8, i32 noundef %23) #15
  store i64 %24, ptr %10, align 8
  %25 = call ptr @__errno_location() #18
  %26 = load i32, ptr %25, align 4
  %27 = icmp ne i32 %26, 0
  br i1 %27, label %28, label %40

28:                                               ; preds = %22
  %29 = load ptr, ptr %5, align 8
  %30 = load i32, ptr %6, align 4
  %31 = icmp ne i32 %30, 0
  br i1 %31, label %32, label %34

32:                                               ; preds = %28
  %33 = load i32, ptr @offset_base, align 4
  br label %35

34:                                               ; preds = %28
  br label %35

35:                                               ; preds = %34, %32
  %36 = phi i32 [ %33, %32 ], [ 16, %34 ]
  %37 = call ptr @__errno_location() #18
  %38 = load i32, ptr %37, align 4
  %39 = call ptr @g_strerror(i32 noundef %38) #18
  call void (ptr, ...) @report_failure(ptr noundef @.str.29, ptr noundef %29, i32 noundef %36, ptr noundef %39)
  store i32 1, ptr %4, align 4
  store i32 1, ptr %9, align 4
  br label %62

40:                                               ; preds = %22
  %41 = load ptr, ptr %8, align 8
  %42 = load ptr, ptr %5, align 8
  %43 = icmp eq ptr %41, %42
  br i1 %43, label %44, label %53

44:                                               ; preds = %40
  %45 = load ptr, ptr %5, align 8
  %46 = load i32, ptr %6, align 4
  %47 = icmp ne i32 %46, 0
  br i1 %47, label %48, label %50

48:                                               ; preds = %44
  %49 = load i32, ptr @offset_base, align 4
  br label %51

50:                                               ; preds = %44
  br label %51

51:                                               ; preds = %50, %48
  %52 = phi i32 [ %49, %48 ], [ 16, %50 ]
  call void (ptr, ...) @report_failure(ptr noundef @.str.30, ptr noundef %45, i32 noundef %52)
  store i32 1, ptr %4, align 4
  store i32 1, ptr %9, align 4
  br label %62

53:                                               ; preds = %40
  %54 = load i64, ptr %10, align 8
  %55 = icmp ugt i64 %54, 4294967295
  br i1 %55, label %56, label %58

56:                                               ; preds = %53
  %57 = load ptr, ptr %5, align 8
  call void (ptr, ...) @report_failure(ptr noundef @.str.31, ptr noundef %57)
  store i32 1, ptr %4, align 4
  store i32 1, ptr %9, align 4
  br label %62

58:                                               ; preds = %53
  %59 = load i64, ptr %10, align 8
  %60 = trunc i64 %59 to i32
  %61 = load ptr, ptr %7, align 8
  store i32 %60, ptr %61, align 4
  store i32 0, ptr %4, align 4
  store i32 1, ptr %9, align 4
  br label %62

62:                                               ; preds = %58, %56, %51, %35
  call void @llvm.lifetime.end.p0(i64 8, ptr %10) #15
  br label %63

63:                                               ; preds = %62, %13
  call void @llvm.lifetime.end.p0(i64 8, ptr %8) #15
  %64 = load i32, ptr %4, align 4
  ret i32 %64
}