; Function Attrs: null_pointer_is_valid sspstrong uwtable
define internal fastcc range(i32 0, 2) i32 @parse_num(ptr noundef %0, i32 noundef range(i32 0, 2) %1, ptr noundef writeonly captures(none) %2) unnamed_addr #0 {
  %4 = alloca ptr, align 8
  call void @llvm.lifetime.start.p0(i64 8, ptr nonnull %4) #18
  %5 = icmp eq ptr %0, null
  br i1 %5, label %6, label %7

6:                                                ; preds = %3
  tail call void (ptr, ...) @report_failure(ptr noundef nonnull @.str.26)
  br label %28

7:                                                ; preds = %3
  %8 = tail call ptr @__errno_location() #20
  store i32 0, ptr %8, align 4
  %.not = icmp eq i32 %1, 0
  %9 = load i32, ptr @offset_base, align 4
  %10 = select i1 %.not, i32 16, i32 %9
  %11 = call i64 @strtoul(ptr noundef nonnull %0, ptr noundef nonnull %4, i32 noundef %10) #18
  %12 = load i32, ptr %8, align 4
  %.not15 = icmp eq i32 %12, 0
  br i1 %.not15, label %17, label %13

13:                                               ; preds = %7
  %14 = load i32, ptr @offset_base, align 4
  %15 = select i1 %.not, i32 16, i32 %14
  %16 = tail call ptr @g_strerror(i32 noundef %12) #20
  tail call void (ptr, ...) @report_failure(ptr noundef nonnull @.str.29, ptr noundef nonnull %0, i32 noundef %15, ptr noundef %16)
  br label %28

17:                                               ; preds = %7
  %18 = load ptr, ptr %4, align 8
  %19 = icmp eq ptr %18, %0
  br i1 %19, label %20, label %23

20:                                               ; preds = %17
  %21 = load i32, ptr @offset_base, align 4
  %22 = select i1 %.not, i32 16, i32 %21
  tail call void (ptr, ...) @report_failure(ptr noundef nonnull @.str.30, ptr noundef nonnull %0, i32 noundef %22)
  br label %28

23:                                               ; preds = %17
  %24 = icmp ugt i64 %11, 4294967295
  br i1 %24, label %25, label %26

25:                                               ; preds = %23
  tail call void (ptr, ...) @report_failure(ptr noundef nonnull @.str.31, ptr noundef nonnull %0)
  br label %28

26:                                               ; preds = %23
  %27 = trunc nuw i64 %11 to i32
  store i32 %27, ptr %2, align 4
  br label %28

28:                                               ; preds = %13, %20, %25, %26, %6
  %.0 = phi i32 [ 1, %6 ], [ 1, %13 ], [ 1, %20 ], [ 1, %25 ], [ 0, %26 ]
  call void @llvm.lifetime.end.p0(i64 8, ptr nonnull %4) #18
  ret i32 %.0
}